target datalayout = "e-m:e-p270:32:32-p271:32:32-p272:64:64-i64:64-i128:128-f80:128-n8:16:32:64-S128"
target triple = "x86_64-unknown-linux-gnu"

%"class.std::set.0" = type { %"class.std::_Rb_tree.1" }
%"class.std::_Rb_tree.1" = type { %"struct.std::_Rb_tree<QuantLib::Observer *, QuantLib::Observer *, std::_Identity<QuantLib::Observer *>, std::less<QuantLib::Observer *>>::_Rb_tree_impl" }
%"struct.std::_Rb_tree<QuantLib::Observer *, QuantLib::Observer *, std::_Identity<QuantLib::Observer *>, std::less<QuantLib::Observer *>>::_Rb_tree_impl" = type { [8 x i8], %"struct.std::_Rb_tree_header" }
%"struct.std::_Rb_tree_header" = type { %"struct.std::_Rb_tree_node_base", i64 }
%"struct.std::_Rb_tree_node_base" = type { i32, ptr, ptr, ptr }
%"class.std::set" = type { %"class.std::_Rb_tree" }
%"class.std::_Rb_tree" = type { %"struct.std::_Rb_tree<boost::shared_ptr<QuantLib::Observable>, boost::shared_ptr<QuantLib::Observable>, std::_Identity<boost::shared_ptr<QuantLib::Observable>>, std::less<boost::shared_ptr<QuantLib::Observable>>>::_Rb_tree_impl" }
%"struct.std::_Rb_tree<boost::shared_ptr<QuantLib::Observable>, boost::shared_ptr<QuantLib::Observable>, std::_Identity<boost::shared_ptr<QuantLib::Observable>>, std::less<boost::shared_ptr<QuantLib::Observable>>>::_Rb_tree_impl" = type { [8 x i8], %"struct.std::_Rb_tree_header" }
%"class.boost::detail::shared_count" = type { ptr }
%"class.QuantLib::Observable" = type { ptr, %"class.std::set.0" }
%"class.QuantLib::AnalyticBarrierEngine" = type { %"class.QuantLib::BarrierOption::engine", %"class.boost::shared_ptr.23", %"class.QuantLib::CumulativeNormalDistribution" }
%"class.QuantLib::BarrierOption::engine" = type { %"class.QuantLib::GenericEngine" }
%"class.QuantLib::GenericEngine" = type { %"class.QuantLib::PricingEngine", %"class.QuantLib::Observer", %"class.QuantLib::BarrierOption::arguments", %"class.QuantLib::OneAssetOption::results" }
%"class.QuantLib::PricingEngine" = type { %"class.QuantLib::Observable" }
%"class.QuantLib::Observer" = type { ptr, %"class.std::set" }
%"class.QuantLib::BarrierOption::arguments" = type { %"class.QuantLib::Option::arguments", i32, double, double }
%"class.QuantLib::Option::arguments" = type { %"class.QuantLib::PricingEngine::arguments", %"class.boost::shared_ptr.16", %"class.boost::shared_ptr.17" }
%"class.QuantLib::PricingEngine::arguments" = type { ptr }
%"class.boost::shared_ptr.16" = type { ptr, %"class.boost::detail::shared_count" }
%"class.boost::shared_ptr.17" = type { ptr, %"class.boost::detail::shared_count" }
%"class.QuantLib::OneAssetOption::results" = type { %"class.QuantLib::Instrument::results", %"class.QuantLib::Greeks", %"class.QuantLib::MoreGreeks" }
%"class.QuantLib::Instrument::results" = type { %"class.QuantLib::PricingEngine::results", double, double, %"class.QuantLib::Date", %"class.std::map" }
%"class.QuantLib::PricingEngine::results" = type { ptr }
%"class.QuantLib::Date" = type { i64 }
%"class.std::map" = type { %"class.std::_Rb_tree.10" }
%"class.std::_Rb_tree.10" = type { %"struct.std::_Rb_tree<std::__cxx11::basic_string<char>, std::pair<const std::__cxx11::basic_string<char>, boost::any>, std::_Select1st<std::pair<const std::__cxx11::basic_string<char>, boost::any>>, std::less<std::__cxx11::basic_string<char>>>::_Rb_tree_impl" }
%"struct.std::_Rb_tree<std::__cxx11::basic_string<char>, std::pair<const std::__cxx11::basic_string<char>, boost::any>, std::_Select1st<std::pair<const std::__cxx11::basic_string<char>, boost::any>>, std::less<std::__cxx11::basic_string<char>>>::_Rb_tree_impl" = type { [8 x i8], %"struct.std::_Rb_tree_header" }
%"class.QuantLib::Greeks" = type { %"class.QuantLib::PricingEngine::results", double, double, double, double, double, double }
%"class.QuantLib::MoreGreeks" = type { %"class.QuantLib::PricingEngine::results", double, double, double, double, double }
%"class.boost::shared_ptr.23" = type { ptr, %"class.boost::detail::shared_count" }
%"class.QuantLib::CumulativeNormalDistribution" = type <{ double, double, %"class.QuantLib::NormalDistribution", [8 x i8] }>
%"class.QuantLib::NormalDistribution" = type { double, double, double, double, double }

@.str.19 = private unnamed_addr constant [8 x i8] c"px != 0\00", align 1
@.str.20 = private unnamed_addr constant [102 x i8] c"generated/home/dtcxzyw/WorkSpace/SDK/vcpkg/installed/x64-linux/include/boost/smart_ptr/shared_ptr.hpp\00", align 1

; Function Attrs: mustprogress uwtable
define linkonce_odr noundef ptr @_ZNK5boost10shared_ptrIN8QuantLib30GeneralizedBlackScholesProcessEEptEv(ptr noundef nonnull align 8 dereferenceable(16) %this) #2 comdat align 2 {
entry:
  %this.addr = alloca ptr, align 8
  store ptr %this, ptr %this.addr, align 8, !tbaa !3
  %this1 = load ptr, ptr %this.addr, align 8
  %px = getelementptr inbounds nuw %"class.boost::shared_ptr.23", ptr %this1, i32 0, i32 0
  %0 = load ptr, ptr %px, align 8, !tbaa !14
  %cmp = icmp ne ptr %0, null
  %lnot = xor i1 %cmp, true
  %lnot2 = xor i1 %lnot, true
  %conv = zext i1 %lnot2 to i64
  %expval = call i64 @llvm.expect.i64(i64 %conv, i64 1)
  %tobool = icmp ne i64 %expval, 0
  br i1 %tobool, label %cond.true, label %cond.false

cond.true:                                        ; preds = %entry
  br label %cond.end

cond.false:                                       ; preds = %entry
  call void @_ZN5boost16assertion_failedEPKcS1_S1_l(ptr noundef @.str.19, ptr noundef @__PRETTY_FUNCTION__._ZNK5boost10shared_ptrIN8QuantLib30GeneralizedBlackScholesProcessEEptEv, ptr noundef @.str.20, i64 noundef 784)
  br label %cond.end

cond.end:                                         ; preds = %cond.false, %cond.true
  %px3 = getelementptr inbounds nuw %"class.boost::shared_ptr.23", ptr %this1, i32 0, i32 0
  %1 = load ptr, ptr %px3, align 8, !tbaa !14
  ret ptr %1
}

; Function Attrs: mustprogress uwtable
define noundef double @_ZNK8QuantLib21AnalyticBarrierEngine10underlyingEv(ptr noundef nonnull align 8 dereferenceable(440) %this) #2 align 2 {
entry:
  %this.addr = alloca ptr, align 8
  store ptr %this, ptr %this.addr, align 8, !tbaa !3
  %this1 = load ptr, ptr %this.addr, align 8
  %process_ = getelementptr inbounds nuw %"class.QuantLib::AnalyticBarrierEngine", ptr %this1, i32 0, i32 1
  %call = call noundef ptr @_ZNK5boost10shared_ptrIN8QuantLib30GeneralizedBlackScholesProcessEEptEv(ptr noundef nonnull align 8 dereferenceable(16) %process_)
  %vtable = load ptr, ptr %call, align 8, !tbaa !12
  %vfn = getelementptr inbounds ptr, ptr %vtable, i64 15
  %0 = load ptr, ptr %vfn, align 8
  %call2 = call noundef double %0(ptr noundef nonnull align 8 dereferenceable(250) %call)
  ret double %call2
}

; Function Attrs: mustprogress nounwind uwtable
define noundef double @_ZNK8QuantLib21AnalyticBarrierEngine7barrierEv(ptr noundef nonnull align 8 dereferenceable(440) %this) #1 align 2 {
entry:
  %this.addr = alloca ptr, align 8
  store ptr %this, ptr %this.addr, align 8, !tbaa !3
  %this1 = load ptr, ptr %this.addr, align 8
  %arguments_ = getelementptr inbounds nuw %"class.QuantLib::GenericEngine", ptr %this1, i32 0, i32 2
  %barrier = getelementptr inbounds nuw %"class.QuantLib::BarrierOption::arguments", ptr %arguments_, i32 0, i32 2
  %0 = load double, ptr %barrier, align 8, !tbaa !77
  ret double %0
}

; Function Attrs: mustprogress uwtable
define noundef double @_ZNK8QuantLib21AnalyticBarrierEngine2muEv(ptr noundef nonnull align 8 dereferenceable(440) %this) #2 align 2 {
entry:
  %this.addr = alloca ptr, align 8
  %vol = alloca double, align 8
  store ptr %this, ptr %this.addr, align 8, !tbaa !3
  %this1 = load ptr, ptr %this.addr, align 8
  call void @llvm.lifetime.start.p0(i64 8, ptr %vol) #13
  %call = call noundef double @_ZNK8QuantLib21AnalyticBarrierEngine10volatilityEv(ptr noundef nonnull align 8 dereferenceable(440) %this1)
  store double %call, ptr %vol, align 8, !tbaa !16
  %call2 = call noundef double @_ZNK8QuantLib21AnalyticBarrierEngine12riskFreeRateEv(ptr noundef nonnull align 8 dereferenceable(440) %this1)
  %call3 = call noundef double @_ZNK8QuantLib21AnalyticBarrierEngine13dividendYieldEv(ptr noundef nonnull align 8 dereferenceable(440) %this1)
  %sub = fsub double %call2, %call3
  %0 = load double, ptr %vol, align 8, !tbaa !16
  %1 = load double, ptr %vol, align 8, !tbaa !16
  %mul = fmul double %0, %1
  %div = fdiv double %sub, %mul
  %sub4 = fsub double %div, 5.000000e-01
  call void @llvm.lifetime.end.p0(i64 8, ptr %vol) #13
  ret double %sub4
}

; Function Attrs: mustprogress nounwind uwtable
define noundef double @_ZNK8QuantLib21AnalyticBarrierEngine6rebateEv(ptr noundef nonnull align 8 dereferenceable(440) %this) #1 align 2 {
entry:
  %this.addr = alloca ptr, align 8
  store ptr %this, ptr %this.addr, align 8, !tbaa !3
  %this1 = load ptr, ptr %this.addr, align 8
  %arguments_ = getelementptr inbounds nuw %"class.QuantLib::GenericEngine", ptr %this1, i32 0, i32 2
  %rebate = getelementptr inbounds nuw %"class.QuantLib::BarrierOption::arguments", ptr %arguments_, i32 0, i32 3
  %0 = load double, ptr %rebate, align 8, !tbaa !84
  ret double %0
}

; Function Attrs: mustprogress uwtable
define noundef double @_ZNK8QuantLib21AnalyticBarrierEngine1FEd(ptr noundef nonnull align 8 dereferenceable(440) %this, double noundef %eta) #2 align 2 {
entry:
  %retval = alloca double, align 8
  %this.addr = alloca ptr, align 8
  %eta.addr = alloca double, align 8
  %m = alloca double, align 8
  %vol = alloca double, align 8
  %lambda = alloca double, align 8
  %HS = alloca double, align 8
  %powHSplus = alloca double, align 8
  %powHSminus = alloca double, align 8
  %sigmaSqrtT = alloca double, align 8
  %z = alloca double, align 8
  %N1 = alloca double, align 8
  %N2 = alloca double, align 8
  store ptr %this, ptr %this.addr, align 8, !tbaa !3
  store double %eta, ptr %eta.addr, align 8, !tbaa !16
  %this1 = load ptr, ptr %this.addr, align 8
  %call = call noundef double @_ZNK8QuantLib21AnalyticBarrierEngine6rebateEv(ptr noundef nonnull align 8 dereferenceable(440) %this1)
  %cmp = fcmp ogt double %call, 0.000000e+00
  br i1 %cmp, label %if.then, label %if.else

if.then:                                          ; preds = %entry
  call void @llvm.lifetime.start.p0(i64 8, ptr %m) #13
  %call2 = call noundef double @_ZNK8QuantLib21AnalyticBarrierEngine2muEv(ptr noundef nonnull align 8 dereferenceable(440) %this1)
  store double %call2, ptr %m, align 8, !tbaa !16
  call void @llvm.lifetime.start.p0(i64 8, ptr %vol) #13
  %call3 = call noundef double @_ZNK8QuantLib21AnalyticBarrierEngine10volatilityEv(ptr noundef nonnull align 8 dereferenceable(440) %this1)
  store double %call3, ptr %vol, align 8, !tbaa !16
  call void @llvm.lifetime.start.p0(i64 8, ptr %lambda) #13
  %0 = load double, ptr %m, align 8, !tbaa !16
  %1 = load double, ptr %m, align 8, !tbaa !16
  %call4 = call noundef double @_ZNK8QuantLib21AnalyticBarrierEngine12riskFreeRateEv(ptr noundef nonnull align 8 dereferenceable(440) %this1)
  %mul5 = fmul double 2.000000e+00, %call4
  %2 = load double, ptr %vol, align 8, !tbaa !16
  %3 = load double, ptr %vol, align 8, !tbaa !16
  %mul6 = fmul double %2, %3
  %div = fdiv double %mul5, %mul6
  %4 = call double @llvm.fmuladd.f64(double %0, double %1, double %div)
  %call7 = call double @sqrt(double noundef %4) #13, !tbaa !78
  store double %call7, ptr %lambda, align 8, !tbaa !16
  call void @llvm.lifetime.start.p0(i64 8, ptr %HS) #13
  %call8 = call noundef double @_ZNK8QuantLib21AnalyticBarrierEngine7barrierEv(ptr noundef nonnull align 8 dereferenceable(440) %this1)
  %call9 = call noundef double @_ZNK8QuantLib21AnalyticBarrierEngine10underlyingEv(ptr noundef nonnull align 8 dereferenceable(440) %this1)
  %div10 = fdiv double %call8, %call9
  store double %div10, ptr %HS, align 8, !tbaa !16
  call void @llvm.lifetime.start.p0(i64 8, ptr %powHSplus) #13
  %5 = load double, ptr %HS, align 8, !tbaa !16
  %6 = load double, ptr %m, align 8, !tbaa !16
  %7 = load double, ptr %lambda, align 8, !tbaa !16
  %add = fadd double %6, %7
  %call11 = call double @pow(double noundef %5, double noundef %add) #13, !tbaa !78
  store double %call11, ptr %powHSplus, align 8, !tbaa !16
  call void @llvm.lifetime.start.p0(i64 8, ptr %powHSminus) #13
  %8 = load double, ptr %HS, align 8, !tbaa !16
  %9 = load double, ptr %m, align 8, !tbaa !16
  %10 = load double, ptr %lambda, align 8, !tbaa !16
  %sub = fsub double %9, %10
  %call12 = call double @pow(double noundef %8, double noundef %sub) #13, !tbaa !78
  store double %call12, ptr %powHSminus, align 8, !tbaa !16
  call void @llvm.lifetime.start.p0(i64 8, ptr %sigmaSqrtT) #13
  %call13 = call noundef double @_ZNK8QuantLib21AnalyticBarrierEngine12stdDeviationEv(ptr noundef nonnull align 8 dereferenceable(440) %this1)
  store double %call13, ptr %sigmaSqrtT, align 8, !tbaa !16
  call void @llvm.lifetime.start.p0(i64 8, ptr %z) #13
  %call14 = call noundef double @_ZNK8QuantLib21AnalyticBarrierEngine7barrierEv(ptr noundef nonnull align 8 dereferenceable(440) %this1)
  %call15 = call noundef double @_ZNK8QuantLib21AnalyticBarrierEngine10underlyingEv(ptr noundef nonnull align 8 dereferenceable(440) %this1)
  %div16 = fdiv double %call14, %call15
  %call17 = call double @log(double noundef %div16) #13, !tbaa !78
  %11 = load double, ptr %sigmaSqrtT, align 8, !tbaa !16
  %div18 = fdiv double %call17, %11
  %12 = load double, ptr %lambda, align 8, !tbaa !16
  %13 = load double, ptr %sigmaSqrtT, align 8, !tbaa !16
  %14 = call double @llvm.fmuladd.f64(double %12, double %13, double %div18)
  store double %14, ptr %z, align 8, !tbaa !16
  call void @llvm.lifetime.start.p0(i64 8, ptr %N1) #13
  %f_ = getelementptr inbounds nuw %"class.QuantLib::AnalyticBarrierEngine", ptr %this1, i32 0, i32 2
  %15 = load double, ptr %eta.addr, align 8, !tbaa !16
  %16 = load double, ptr %z, align 8, !tbaa !16
  %mul = fmul double %15, %16
  %call19 = call noundef double @_ZNK8QuantLib28CumulativeNormalDistributionclEd(ptr noundef nonnull align 8 dereferenceable(57) %f_, double noundef %mul)
  store double %call19, ptr %N1, align 8, !tbaa !16
  call void @llvm.lifetime.start.p0(i64 8, ptr %N2) #13
  %f_20 = getelementptr inbounds nuw %"class.QuantLib::AnalyticBarrierEngine", ptr %this1, i32 0, i32 2
  %17 = load double, ptr %eta.addr, align 8, !tbaa !16
  %18 = load double, ptr %z, align 8, !tbaa !16
  %19 = load double, ptr %lambda, align 8, !tbaa !16
  %mul21 = fmul double 2.000000e+00, %19
  %20 = load double, ptr %sigmaSqrtT, align 8, !tbaa !16
  %neg = fneg double %mul21
  %21 = call double @llvm.fmuladd.f64(double %neg, double %20, double %18)
  %mul23 = fmul double %17, %21
  %call24 = call noundef double @_ZNK8QuantLib28CumulativeNormalDistributionclEd(ptr noundef nonnull align 8 dereferenceable(57) %f_20, double noundef %mul23)
  store double %call24, ptr %N2, align 8, !tbaa !16
  %call25 = call noundef double @_ZNK8QuantLib21AnalyticBarrierEngine6rebateEv(ptr noundef nonnull align 8 dereferenceable(440) %this1)
  %22 = load double, ptr %N1, align 8, !tbaa !16
  %cmp26 = fcmp oeq double %22, 0.000000e+00
  br i1 %cmp26, label %cond.true, label %cond.false

cond.true:                                        ; preds = %if.then
  br label %cond.end

cond.false:                                       ; preds = %if.then
  %23 = load double, ptr %powHSplus, align 8, !tbaa !16
  %24 = load double, ptr %N1, align 8, !tbaa !16
  %mul27 = fmul double %23, %24
  br label %cond.end

cond.end:                                         ; preds = %cond.false, %cond.true
  %cond = phi double [ 0.000000e+00, %cond.true ], [ %mul27, %cond.false ]
  %25 = load double, ptr %N2, align 8, !tbaa !16
  %cmp28 = fcmp oeq double %25, 0.000000e+00
  br i1 %cmp28, label %cond.true29, label %cond.false30

cond.true29:                                      ; preds = %cond.end
  br label %cond.end32

cond.false30:                                     ; preds = %cond.end
  %26 = load double, ptr %powHSminus, align 8, !tbaa !16
  %27 = load double, ptr %N2, align 8, !tbaa !16
  %mul31 = fmul double %26, %27
  br label %cond.end32

cond.end32:                                       ; preds = %cond.false30, %cond.true29
  %cond33 = phi double [ 0.000000e+00, %cond.true29 ], [ %mul31, %cond.false30 ]
  %add34 = fadd double %cond, %cond33
  %mul35 = fmul double %call25, %add34
  store double %mul35, ptr %retval, align 8
  call void @llvm.lifetime.end.p0(i64 8, ptr %N2) #13
  call void @llvm.lifetime.end.p0(i64 8, ptr %N1) #13
  call void @llvm.lifetime.end.p0(i64 8, ptr %z) #13
  call void @llvm.lifetime.end.p0(i64 8, ptr %sigmaSqrtT) #13
  call void @llvm.lifetime.end.p0(i64 8, ptr %powHSminus) #13
  call void @llvm.lifetime.end.p0(i64 8, ptr %powHSplus) #13
  call void @llvm.lifetime.end.p0(i64 8, ptr %HS) #13
  call void @llvm.lifetime.end.p0(i64 8, ptr %lambda) #13
  call void @llvm.lifetime.end.p0(i64 8, ptr %vol) #13
  call void @llvm.lifetime.end.p0(i64 8, ptr %m) #13
  br label %return

if.else:                                          ; preds = %entry
  store double 0.000000e+00, ptr %retval, align 8
  br label %return

return:                                           ; preds = %if.else, %cond.end32
  %28 = load double, ptr %retval, align 8
  ret double %28
}