; Function Attrs: mustprogress uwtable
define noundef double @_ZNK8QuantLib21AnalyticBarrierEngine1FEd(ptr noundef nonnull align 8 dereferenceable(440) %this, double noundef %eta) local_unnamed_addr #8 align 2 {
entry:
  %rebate.i = getelementptr inbounds nuw i8, ptr %this, i64 168
  %0 = load double, ptr %rebate.i, align 8, !tbaa !107
  %cmp = fcmp ogt double %0, 0.000000e+00
  br i1 %cmp, label %if.then, label %return

if.then:                                          ; preds = %entry
  %call.i = tail call noundef double @_ZNK8QuantLib21AnalyticBarrierEngine10volatilityEv(ptr noundef nonnull readonly align 8 dereferenceable(440) %this)
  %call2.i = tail call noundef double @_ZNK8QuantLib21AnalyticBarrierEngine12riskFreeRateEv(ptr noundef nonnull readonly align 8 dereferenceable(440) %this)
  %call3.i = tail call noundef double @_ZNK8QuantLib21AnalyticBarrierEngine13dividendYieldEv(ptr noundef nonnull readonly align 8 dereferenceable(440) %this)
  %sub.i = fsub double %call2.i, %call3.i
  %mul.i = fmul double %call.i, %call.i
  %div.i = fdiv double %sub.i, %mul.i
  %sub4.i = fadd double %div.i, -5.000000e-01
  %call3 = tail call noundef double @_ZNK8QuantLib21AnalyticBarrierEngine10volatilityEv(ptr noundef nonnull align 8 dereferenceable(440) %this)
  %call4 = tail call noundef double @_ZNK8QuantLib21AnalyticBarrierEngine12riskFreeRateEv(ptr noundef nonnull align 8 dereferenceable(440) %this)
  %mul5 = fmul double %call4, 2.000000e+00
  %mul6 = fmul double %call3, %call3
  %div = fdiv double %mul5, %mul6
  %1 = tail call double @llvm.fmuladd.f64(double %sub4.i, double %sub4.i, double %div)
  %call7 = tail call double @sqrt(double noundef %1) #27, !tbaa !105
  %barrier.i = getelementptr inbounds nuw i8, ptr %this, i64 160
  %2 = load double, ptr %barrier.i, align 8, !tbaa !103
  %process_.i = getelementptr inbounds nuw i8, ptr %this, i64 360
  %3 = load ptr, ptr %process_.i, align 8, !tbaa !39
  %cmp.not.i.i = icmp eq ptr %3, null
  br i1 %cmp.not.i.i, label %cond.false.i.i, label %_ZNK8QuantLib21AnalyticBarrierEngine10underlyingEv.exit, !prof !71

cond.false.i.i:                                   ; preds = %if.then
  tail call void @_ZN5boost16assertion_failedEPKcS1_S1_l(ptr noundef nonnull @.str.19, ptr noundef nonnull @__PRETTY_FUNCTION__._ZNK5boost10shared_ptrIN8QuantLib30GeneralizedBlackScholesProcessEEptEv, ptr noundef nonnull @.str.20, i64 noundef 784)
  %.pre.i.i = load ptr, ptr %process_.i, align 8, !tbaa !39
  br label %_ZNK8QuantLib21AnalyticBarrierEngine10underlyingEv.exit

_ZNK8QuantLib21AnalyticBarrierEngine10underlyingEv.exit: ; preds = %if.then, %cond.false.i.i
  %4 = phi ptr [ %3, %if.then ], [ %.pre.i.i, %cond.false.i.i ]
  %vtable.i = load ptr, ptr %4, align 8, !tbaa !35
  %vfn.i = getelementptr inbounds i8, ptr %vtable.i, i64 120
  %5 = load ptr, ptr %vfn.i, align 8
  %call2.i15 = tail call noundef double %5(ptr noundef nonnull align 8 dereferenceable(250) %4)
  %div10 = fdiv double %2, %call2.i15
  %add = fadd double %sub4.i, %call7
  %call11 = tail call double @pow(double noundef %div10, double noundef %add) #27, !tbaa !105
  %sub = fsub double %sub4.i, %call7
  %call12 = tail call double @pow(double noundef %div10, double noundef %sub) #27, !tbaa !105
  %call13 = tail call noundef double @_ZNK8QuantLib21AnalyticBarrierEngine12stdDeviationEv(ptr noundef nonnull align 8 dereferenceable(440) %this)
  %6 = load double, ptr %barrier.i, align 8, !tbaa !103
  %7 = load ptr, ptr %process_.i, align 8, !tbaa !39
  %cmp.not.i.i18 = icmp eq ptr %7, null
  br i1 %cmp.not.i.i18, label %cond.false.i.i22, label %_ZNK8QuantLib21AnalyticBarrierEngine10underlyingEv.exit24, !prof !71

cond.false.i.i22:                                 ; preds = %_ZNK8QuantLib21AnalyticBarrierEngine10underlyingEv.exit
  tail call void @_ZN5boost16assertion_failedEPKcS1_S1_l(ptr noundef nonnull @.str.19, ptr noundef nonnull @__PRETTY_FUNCTION__._ZNK5boost10shared_ptrIN8QuantLib30GeneralizedBlackScholesProcessEEptEv, ptr noundef nonnull @.str.20, i64 noundef 784)
  %.pre.i.i23 = load ptr, ptr %process_.i, align 8, !tbaa !39
  br label %_ZNK8QuantLib21AnalyticBarrierEngine10underlyingEv.exit24

_ZNK8QuantLib21AnalyticBarrierEngine10underlyingEv.exit24: ; preds = %_ZNK8QuantLib21AnalyticBarrierEngine10underlyingEv.exit, %cond.false.i.i22
  %8 = phi ptr [ %7, %_ZNK8QuantLib21AnalyticBarrierEngine10underlyingEv.exit ], [ %.pre.i.i23, %cond.false.i.i22 ]
  %vtable.i19 = load ptr, ptr %8, align 8, !tbaa !35
  %vfn.i20 = getelementptr inbounds i8, ptr %vtable.i19, i64 120
  %9 = load ptr, ptr %vfn.i20, align 8
  %call2.i21 = tail call noundef double %9(ptr noundef nonnull align 8 dereferenceable(250) %8)
  %div16 = fdiv double %6, %call2.i21
  %call17 = tail call double @log(double noundef %div16) #27, !tbaa !105
  %div18 = fdiv double %call17, %call13
  %10 = tail call double @llvm.fmuladd.f64(double %call7, double %call13, double %div18)
  %f_ = getelementptr inbounds nuw i8, ptr %this, i64 376
  %mul = fmul double %eta, %10
  %call19 = tail call noundef double @_ZNK8QuantLib28CumulativeNormalDistributionclEd(ptr noundef nonnull align 8 dereferenceable(57) %f_, double noundef %mul)
  %neg = fmul double %call7, -2.000000e+00
  %11 = tail call double @llvm.fmuladd.f64(double %neg, double %call13, double %10)
  %mul23 = fmul double %eta, %11
  %call24 = tail call noundef double @_ZNK8QuantLib28CumulativeNormalDistributionclEd(ptr noundef nonnull align 8 dereferenceable(57) %f_, double noundef %mul23)
  %12 = load double, ptr %rebate.i, align 8, !tbaa !107
  %cmp26 = fcmp oeq double %call19, 0.000000e+00
  %mul27 = fmul double %call11, %call19
  %cond = select i1 %cmp26, double 0.000000e+00, double %mul27
  %cmp28 = fcmp oeq double %call24, 0.000000e+00
  %mul31 = fmul double %call12, %call24
  %cond33 = select i1 %cmp28, double 0.000000e+00, double %mul31
  %add34 = fadd double %cond, %cond33
  %mul35 = fmul double %12, %add34
  br label %return

return:                                           ; preds = %entry, %_ZNK8QuantLib21AnalyticBarrierEngine10underlyingEv.exit24
  %retval.0 = phi double [ %mul35, %_ZNK8QuantLib21AnalyticBarrierEngine10underlyingEv.exit24 ], [ 0.000000e+00, %entry ]
  ret double %retval.0
}